target datalayout = "e-m:e-p270:32:32-p271:32:32-p272:64:64-i64:64-i128:128-f80:128-n8:16:32:64-S128"
target triple = "x86_64-pc-linux-gnu"

; Function Attrs: mustprogress nounwind uwtable
define hidden void @_ZN2cv8ximgproc10intrinsics4add_EPfS2_i(ptr noundef %0, ptr noundef %1, i32 noundef %2) #7 {
  %4 = alloca ptr, align 8
  %5 = alloca ptr, align 8
  %6 = alloca i32, align 4
  %7 = alloca i32, align 4
  store ptr %0, ptr %4, align 8, !tbaa !68
  store ptr %1, ptr %5, align 8, !tbaa !68
  store i32 %2, ptr %6, align 4, !tbaa !10
  call void @llvm.lifetime.start.p0(i64 4, ptr %7) #3
  store i32 0, ptr %7, align 4, !tbaa !10
  br label %8

8:                                                ; preds = %24, %3
  %9 = load i32, ptr %7, align 4, !tbaa !10
  %10 = load i32, ptr %6, align 4, !tbaa !10
  %11 = icmp slt i32 %9, %10
  br i1 %11, label %12, label %27

12:                                               ; preds = %8
  %13 = load ptr, ptr %5, align 8, !tbaa !68
  %14 = load i32, ptr %7, align 4, !tbaa !10
  %15 = sext i32 %14 to i64
  %16 = getelementptr inbounds float, ptr %13, i64 %15
  %17 = load float, ptr %16, align 4, !tbaa !70
  %18 = load ptr, ptr %4, align 8, !tbaa !68
  %19 = load i32, ptr %7, align 4, !tbaa !10
  %20 = sext i32 %19 to i64
  %21 = getelementptr inbounds float, ptr %18, i64 %20
  %22 = load float, ptr %21, align 4, !tbaa !70
  %23 = fadd float %22, %17
  store float %23, ptr %21, align 4, !tbaa !70
  br label %24

24:                                               ; preds = %12
  %25 = load i32, ptr %7, align 4, !tbaa !10
  %26 = add nsw i32 %25, 1
  store i32 %26, ptr %7, align 4, !tbaa !10
  br label %8, !llvm.loop !72

27:                                               ; preds = %8
  call void @llvm.lifetime.end.p0(i64 4, ptr %7) #3
  ret void
}